; Function Attrs: mustprogress nofree norecurse nosync nounwind willreturn memory(read, inaccessiblemem: none) uwtable
define dso_local noundef range(i32 0, 32768) i32 @_ZNK4llvm15TargetInstrInfo14getNumMicroOpsEPKNS_18InstrItineraryDataERKNS_12MachineInstrE(ptr nocapture nonnull readnone align 8 %0, ptr noundef readonly %1, ptr nocapture noundef nonnull readonly align 8 dereferenceable(70) %2) unnamed_addr #14 align 2 {
  %.not = icmp eq ptr %1, null
  br i1 %.not, label %17, label %4

4:                                                ; preds = %3
  %5 = getelementptr inbounds nuw i8, ptr %1, i64 96
  %6 = load ptr, ptr %5, align 8
  %7 = icmp eq ptr %6, null
  br i1 %7, label %17, label %8

8:                                                ; preds = %4
  %9 = getelementptr inbounds nuw i8, ptr %2, i64 16
  %10 = load ptr, ptr %9, align 8
  %11 = getelementptr inbounds nuw i8, ptr %10, i64 6
  %12 = load i16, ptr %11, align 2
  %13 = zext i16 %12 to i64
  %14 = getelementptr inbounds %"struct.llvm::InstrItinerary", ptr %6, i64 %13
  %15 = load i16, ptr %14, align 2
  %16 = icmp sgt i16 %15, -1
  %narrow = select i1 %16, i16 %15, i16 1
  %spec.select = sext i16 %narrow to i32
  br label %17

17:                                               ; preds = %8, %3, %4
  %.0 = phi i32 [ 1, %4 ], [ 1, %3 ], [ %spec.select, %8 ]
  ret i32 %.0
}